target datalayout = "e-m:e-p270:32:32-p271:32:32-p272:64:64-i64:64-i128:128-f80:128-n8:16:32:64-S128"
target triple = "x86_64-pc-linux-gnu"

@s_Truths6 = internal global [6 x i64] [i64 -6148914691236517206, i64 -3689348814741910324, i64 -1085102592571150096, i64 -71777214294589696, i64 -281470681808896, i64 -4294967296], align 16
@s_Truths6Neg = internal global [6 x i64] [i64 6148914691236517205, i64 3689348814741910323, i64 1085102592571150095, i64 71777214294589695, i64 281470681808895, i64 4294967295], align 16

; Function Attrs: inlinehint nounwind uwtable
define internal i32 @Abc_TtWordNum(i32 noundef %0) #2 {
  %2 = alloca i32, align 4
  store i32 %0, ptr %2, align 4, !tbaa !8
  %3 = load i32, ptr %2, align 4, !tbaa !8
  %4 = icmp sle i32 %3, 6
  br i1 %4, label %5, label %6

5:                                                ; preds = %1
  br label %10

6:                                                ; preds = %1
  %7 = load i32, ptr %2, align 4, !tbaa !8
  %8 = sub nsw i32 %7, 6
  %9 = shl i32 1, %8
  br label %10

10:                                               ; preds = %6, %5
  %11 = phi i32 [ 1, %5 ], [ %9, %6 ]
  ret i32 %11
}

; Function Attrs: inlinehint nounwind uwtable
define internal void @Abc_TtCofactor0(ptr noundef %0, i32 noundef %1, i32 noundef %2) #2 {
  %4 = alloca ptr, align 8
  %5 = alloca i32, align 4
  %6 = alloca i32, align 4
  %7 = alloca i32, align 4
  %8 = alloca i32, align 4
  %9 = alloca ptr, align 8
  %10 = alloca i32, align 4
  %11 = alloca i32, align 4
  store ptr %0, ptr %4, align 8, !tbaa !27
  store i32 %1, ptr %5, align 4, !tbaa !8
  store i32 %2, ptr %6, align 4, !tbaa !8
  %12 = load i32, ptr %5, align 4, !tbaa !8
  %13 = icmp eq i32 %12, 1
  br i1 %13, label %14, label %38

14:                                               ; preds = %3
  %15 = load ptr, ptr %4, align 8, !tbaa !27
  %16 = getelementptr inbounds i64, ptr %15, i64 0
  %17 = load i64, ptr %16, align 8, !tbaa !29
  %18 = load i32, ptr %6, align 4, !tbaa !8
  %19 = sext i32 %18 to i64
  %20 = getelementptr inbounds [6 x i64], ptr @s_Truths6Neg, i64 0, i64 %19
  %21 = load i64, ptr %20, align 8, !tbaa !29
  %22 = and i64 %17, %21
  %23 = load i32, ptr %6, align 4, !tbaa !8
  %24 = shl i32 1, %23
  %25 = zext i32 %24 to i64
  %26 = shl i64 %22, %25
  %27 = load ptr, ptr %4, align 8, !tbaa !27
  %28 = getelementptr inbounds i64, ptr %27, i64 0
  %29 = load i64, ptr %28, align 8, !tbaa !29
  %30 = load i32, ptr %6, align 4, !tbaa !8
  %31 = sext i32 %30 to i64
  %32 = getelementptr inbounds [6 x i64], ptr @s_Truths6Neg, i64 0, i64 %31
  %33 = load i64, ptr %32, align 8, !tbaa !29
  %34 = and i64 %29, %33
  %35 = or i64 %26, %34
  %36 = load ptr, ptr %4, align 8, !tbaa !27
  %37 = getelementptr inbounds i64, ptr %36, i64 0
  store i64 %35, ptr %37, align 8, !tbaa !29
  br label %121

38:                                               ; preds = %3
  %39 = load i32, ptr %6, align 4, !tbaa !8
  %40 = icmp sle i32 %39, 5
  br i1 %40, label %41, label %81

41:                                               ; preds = %38
  call void @llvm.lifetime.start.p0(i64 4, ptr %7) #8
  call void @llvm.lifetime.start.p0(i64 4, ptr %8) #8
  %42 = load i32, ptr %6, align 4, !tbaa !8
  %43 = shl i32 1, %42
  store i32 %43, ptr %8, align 4, !tbaa !8
  store i32 0, ptr %7, align 4, !tbaa !8
  br label %44

44:                                               ; preds = %77, %41
  %45 = load i32, ptr %7, align 4, !tbaa !8
  %46 = load i32, ptr %5, align 4, !tbaa !8
  %47 = icmp slt i32 %45, %46
  br i1 %47, label %48, label %80

48:                                               ; preds = %44
  %49 = load ptr, ptr %4, align 8, !tbaa !27
  %50 = load i32, ptr %7, align 4, !tbaa !8
  %51 = sext i32 %50 to i64
  %52 = getelementptr inbounds i64, ptr %49, i64 %51
  %53 = load i64, ptr %52, align 8, !tbaa !29
  %54 = load i32, ptr %6, align 4, !tbaa !8
  %55 = sext i32 %54 to i64
  %56 = getelementptr inbounds [6 x i64], ptr @s_Truths6Neg, i64 0, i64 %55
  %57 = load i64, ptr %56, align 8, !tbaa !29
  %58 = and i64 %53, %57
  %59 = load i32, ptr %8, align 4, !tbaa !8
  %60 = zext i32 %59 to i64
  %61 = shl i64 %58, %60
  %62 = load ptr, ptr %4, align 8, !tbaa !27
  %63 = load i32, ptr %7, align 4, !tbaa !8
  %64 = sext i32 %63 to i64
  %65 = getelementptr inbounds i64, ptr %62, i64 %64
  %66 = load i64, ptr %65, align 8, !tbaa !29
  %67 = load i32, ptr %6, align 4, !tbaa !8
  %68 = sext i32 %67 to i64
  %69 = getelementptr inbounds [6 x i64], ptr @s_Truths6Neg, i64 0, i64 %68
  %70 = load i64, ptr %69, align 8, !tbaa !29
  %71 = and i64 %66, %70
  %72 = or i64 %61, %71
  %73 = load ptr, ptr %4, align 8, !tbaa !27
  %74 = load i32, ptr %7, align 4, !tbaa !8
  %75 = sext i32 %74 to i64
  %76 = getelementptr inbounds i64, ptr %73, i64 %75
  store i64 %72, ptr %76, align 8, !tbaa !29
  br label %77

77:                                               ; preds = %48
  %78 = load i32, ptr %7, align 4, !tbaa !8
  %79 = add nsw i32 %78, 1
  store i32 %79, ptr %7, align 4, !tbaa !8
  br label %44, !llvm.loop !59

80:                                               ; preds = %44
  call void @llvm.lifetime.end.p0(i64 4, ptr %8) #8
  call void @llvm.lifetime.end.p0(i64 4, ptr %7) #8
  br label %120

81:                                               ; preds = %38
  call void @llvm.lifetime.start.p0(i64 8, ptr %9) #8
  %82 = load ptr, ptr %4, align 8, !tbaa !27
  %83 = load i32, ptr %5, align 4, !tbaa !8
  %84 = sext i32 %83 to i64
  %85 = getelementptr inbounds i64, ptr %82, i64 %84
  store ptr %85, ptr %9, align 8, !tbaa !27
  call void @llvm.lifetime.start.p0(i64 4, ptr %10) #8
  call void @llvm.lifetime.start.p0(i64 4, ptr %11) #8
  %86 = load i32, ptr %6, align 4, !tbaa !8
  %87 = call i32 @Abc_TtWordNum(i32 noundef %86)
  store i32 %87, ptr %11, align 4, !tbaa !8
  br label %88

88:                                               ; preds = %113, %81
  %89 = load ptr, ptr %4, align 8, !tbaa !27
  %90 = load ptr, ptr %9, align 8, !tbaa !27
  %91 = icmp ult ptr %89, %90
  br i1 %91, label %92, label %119

92:                                               ; preds = %88
  store i32 0, ptr %10, align 4, !tbaa !8
  br label %93

93:                                               ; preds = %109, %92
  %94 = load i32, ptr %10, align 4, !tbaa !8
  %95 = load i32, ptr %11, align 4, !tbaa !8
  %96 = icmp slt i32 %94, %95
  br i1 %96, label %97, label %112

97:                                               ; preds = %93
  %98 = load ptr, ptr %4, align 8, !tbaa !27
  %99 = load i32, ptr %10, align 4, !tbaa !8
  %100 = sext i32 %99 to i64
  %101 = getelementptr inbounds i64, ptr %98, i64 %100
  %102 = load i64, ptr %101, align 8, !tbaa !29
  %103 = load ptr, ptr %4, align 8, !tbaa !27
  %104 = load i32, ptr %10, align 4, !tbaa !8
  %105 = load i32, ptr %11, align 4, !tbaa !8
  %106 = add nsw i32 %104, %105
  %107 = sext i32 %106 to i64
  %108 = getelementptr inbounds i64, ptr %103, i64 %107
  store i64 %102, ptr %108, align 8, !tbaa !29
  br label %109

109:                                              ; preds = %97
  %110 = load i32, ptr %10, align 4, !tbaa !8
  %111 = add nsw i32 %110, 1
  store i32 %111, ptr %10, align 4, !tbaa !8
  br label %93, !llvm.loop !60

112:                                              ; preds = %93
  br label %113

113:                                              ; preds = %112
  %114 = load i32, ptr %11, align 4, !tbaa !8
  %115 = mul nsw i32 2, %114
  %116 = load ptr, ptr %4, align 8, !tbaa !27
  %117 = sext i32 %115 to i64
  %118 = getelementptr inbounds i64, ptr %116, i64 %117
  store ptr %118, ptr %4, align 8, !tbaa !27
  br label %88, !llvm.loop !61

119:                                              ; preds = %88
  call void @llvm.lifetime.end.p0(i64 4, ptr %11) #8
  call void @llvm.lifetime.end.p0(i64 4, ptr %10) #8
  call void @llvm.lifetime.end.p0(i64 8, ptr %9) #8
  br label %120

120:                                              ; preds = %119, %80
  br label %121

121:                                              ; preds = %120, %14
  ret void
}

; Function Attrs: inlinehint nounwind uwtable
define internal void @Abc_TtCofactor1(ptr noundef %0, i32 noundef %1, i32 noundef %2) #2 {
  %4 = alloca ptr, align 8
  %5 = alloca i32, align 4
  %6 = alloca i32, align 4
  %7 = alloca i32, align 4
  %8 = alloca i32, align 4
  %9 = alloca ptr, align 8
  %10 = alloca i32, align 4
  %11 = alloca i32, align 4
  store ptr %0, ptr %4, align 8, !tbaa !27
  store i32 %1, ptr %5, align 4, !tbaa !8
  store i32 %2, ptr %6, align 4, !tbaa !8
  %12 = load i32, ptr %5, align 4, !tbaa !8
  %13 = icmp eq i32 %12, 1
  br i1 %13, label %14, label %38

14:                                               ; preds = %3
  %15 = load ptr, ptr %4, align 8, !tbaa !27
  %16 = getelementptr inbounds i64, ptr %15, i64 0
  %17 = load i64, ptr %16, align 8, !tbaa !29
  %18 = load i32, ptr %6, align 4, !tbaa !8
  %19 = sext i32 %18 to i64
  %20 = getelementptr inbounds [6 x i64], ptr @s_Truths6, i64 0, i64 %19
  %21 = load i64, ptr %20, align 8, !tbaa !29
  %22 = and i64 %17, %21
  %23 = load ptr, ptr %4, align 8, !tbaa !27
  %24 = getelementptr inbounds i64, ptr %23, i64 0
  %25 = load i64, ptr %24, align 8, !tbaa !29
  %26 = load i32, ptr %6, align 4, !tbaa !8
  %27 = sext i32 %26 to i64
  %28 = getelementptr inbounds [6 x i64], ptr @s_Truths6, i64 0, i64 %27
  %29 = load i64, ptr %28, align 8, !tbaa !29
  %30 = and i64 %25, %29
  %31 = load i32, ptr %6, align 4, !tbaa !8
  %32 = shl i32 1, %31
  %33 = zext i32 %32 to i64
  %34 = lshr i64 %30, %33
  %35 = or i64 %22, %34
  %36 = load ptr, ptr %4, align 8, !tbaa !27
  %37 = getelementptr inbounds i64, ptr %36, i64 0
  store i64 %35, ptr %37, align 8, !tbaa !29
  br label %121

38:                                               ; preds = %3
  %39 = load i32, ptr %6, align 4, !tbaa !8
  %40 = icmp sle i32 %39, 5
  br i1 %40, label %41, label %81

41:                                               ; preds = %38
  call void @llvm.lifetime.start.p0(i64 4, ptr %7) #8
  call void @llvm.lifetime.start.p0(i64 4, ptr %8) #8
  %42 = load i32, ptr %6, align 4, !tbaa !8
  %43 = shl i32 1, %42
  store i32 %43, ptr %8, align 4, !tbaa !8
  store i32 0, ptr %7, align 4, !tbaa !8
  br label %44

44:                                               ; preds = %77, %41
  %45 = load i32, ptr %7, align 4, !tbaa !8
  %46 = load i32, ptr %5, align 4, !tbaa !8
  %47 = icmp slt i32 %45, %46
  br i1 %47, label %48, label %80

48:                                               ; preds = %44
  %49 = load ptr, ptr %4, align 8, !tbaa !27
  %50 = load i32, ptr %7, align 4, !tbaa !8
  %51 = sext i32 %50 to i64
  %52 = getelementptr inbounds i64, ptr %49, i64 %51
  %53 = load i64, ptr %52, align 8, !tbaa !29
  %54 = load i32, ptr %6, align 4, !tbaa !8
  %55 = sext i32 %54 to i64
  %56 = getelementptr inbounds [6 x i64], ptr @s_Truths6, i64 0, i64 %55
  %57 = load i64, ptr %56, align 8, !tbaa !29
  %58 = and i64 %53, %57
  %59 = load ptr, ptr %4, align 8, !tbaa !27
  %60 = load i32, ptr %7, align 4, !tbaa !8
  %61 = sext i32 %60 to i64
  %62 = getelementptr inbounds i64, ptr %59, i64 %61
  %63 = load i64, ptr %62, align 8, !tbaa !29
  %64 = load i32, ptr %6, align 4, !tbaa !8
  %65 = sext i32 %64 to i64
  %66 = getelementptr inbounds [6 x i64], ptr @s_Truths6, i64 0, i64 %65
  %67 = load i64, ptr %66, align 8, !tbaa !29
  %68 = and i64 %63, %67
  %69 = load i32, ptr %8, align 4, !tbaa !8
  %70 = zext i32 %69 to i64
  %71 = lshr i64 %68, %70
  %72 = or i64 %58, %71
  %73 = load ptr, ptr %4, align 8, !tbaa !27
  %74 = load i32, ptr %7, align 4, !tbaa !8
  %75 = sext i32 %74 to i64
  %76 = getelementptr inbounds i64, ptr %73, i64 %75
  store i64 %72, ptr %76, align 8, !tbaa !29
  br label %77

77:                                               ; preds = %48
  %78 = load i32, ptr %7, align 4, !tbaa !8
  %79 = add nsw i32 %78, 1
  store i32 %79, ptr %7, align 4, !tbaa !8
  br label %44, !llvm.loop !56

80:                                               ; preds = %44
  call void @llvm.lifetime.end.p0(i64 4, ptr %8) #8
  call void @llvm.lifetime.end.p0(i64 4, ptr %7) #8
  br label %120

81:                                               ; preds = %38
  call void @llvm.lifetime.start.p0(i64 8, ptr %9) #8
  %82 = load ptr, ptr %4, align 8, !tbaa !27
  %83 = load i32, ptr %5, align 4, !tbaa !8
  %84 = sext i32 %83 to i64
  %85 = getelementptr inbounds i64, ptr %82, i64 %84
  store ptr %85, ptr %9, align 8, !tbaa !27
  call void @llvm.lifetime.start.p0(i64 4, ptr %10) #8
  call void @llvm.lifetime.start.p0(i64 4, ptr %11) #8
  %86 = load i32, ptr %6, align 4, !tbaa !8
  %87 = call i32 @Abc_TtWordNum(i32 noundef %86)
  store i32 %87, ptr %11, align 4, !tbaa !8
  br label %88

88:                                               ; preds = %113, %81
  %89 = load ptr, ptr %4, align 8, !tbaa !27
  %90 = load ptr, ptr %9, align 8, !tbaa !27
  %91 = icmp ult ptr %89, %90
  br i1 %91, label %92, label %119

92:                                               ; preds = %88
  store i32 0, ptr %10, align 4, !tbaa !8
  br label %93

93:                                               ; preds = %109, %92
  %94 = load i32, ptr %10, align 4, !tbaa !8
  %95 = load i32, ptr %11, align 4, !tbaa !8
  %96 = icmp slt i32 %94, %95
  br i1 %96, label %97, label %112

97:                                               ; preds = %93
  %98 = load ptr, ptr %4, align 8, !tbaa !27
  %99 = load i32, ptr %10, align 4, !tbaa !8
  %100 = load i32, ptr %11, align 4, !tbaa !8
  %101 = add nsw i32 %99, %100
  %102 = sext i32 %101 to i64
  %103 = getelementptr inbounds i64, ptr %98, i64 %102
  %104 = load i64, ptr %103, align 8, !tbaa !29
  %105 = load ptr, ptr %4, align 8, !tbaa !27
  %106 = load i32, ptr %10, align 4, !tbaa !8
  %107 = sext i32 %106 to i64
  %108 = getelementptr inbounds i64, ptr %105, i64 %107
  store i64 %104, ptr %108, align 8, !tbaa !29
  br label %109

109:                                              ; preds = %97
  %110 = load i32, ptr %10, align 4, !tbaa !8
  %111 = add nsw i32 %110, 1
  store i32 %111, ptr %10, align 4, !tbaa !8
  br label %93, !llvm.loop !57

112:                                              ; preds = %93
  br label %113

113:                                              ; preds = %112
  %114 = load i32, ptr %11, align 4, !tbaa !8
  %115 = mul nsw i32 2, %114
  %116 = load ptr, ptr %4, align 8, !tbaa !27
  %117 = sext i32 %115 to i64
  %118 = getelementptr inbounds i64, ptr %116, i64 %117
  store ptr %118, ptr %4, align 8, !tbaa !27
  br label %88, !llvm.loop !58

119:                                              ; preds = %88
  call void @llvm.lifetime.end.p0(i64 4, ptr %11) #8
  call void @llvm.lifetime.end.p0(i64 4, ptr %10) #8
  call void @llvm.lifetime.end.p0(i64 8, ptr %9) #8
  br label %120

120:                                              ; preds = %119, %80
  br label %121

121:                                              ; preds = %120, %14
  ret void
}

; Function Attrs: inlinehint nounwind uwtable
define internal void @cubeCofactor(ptr noundef %0, ptr noundef %1, i32 noundef %2) #2 {
  %4 = alloca ptr, align 8
  %5 = alloca ptr, align 8
  %6 = alloca i32, align 4
  %7 = alloca i32, align 4
  %8 = alloca i32, align 4
  %9 = alloca i32, align 4
  store ptr %0, ptr %4, align 8, !tbaa !27
  store ptr %1, ptr %5, align 8, !tbaa !10
  store i32 %2, ptr %6, align 4, !tbaa !8
  call void @llvm.lifetime.start.p0(i64 4, ptr %7) #8
  %10 = load ptr, ptr %5, align 8, !tbaa !10
  %11 = getelementptr inbounds i32, ptr %10, i64 0
  %12 = load i32, ptr %11, align 4, !tbaa !8
  store i32 %12, ptr %7, align 4, !tbaa !8
  call void @llvm.lifetime.start.p0(i64 4, ptr %8) #8
  store i32 1, ptr %8, align 4, !tbaa !8
  br label %13

13:                                               ; preds = %37, %3
  %14 = load i32, ptr %8, align 4, !tbaa !8
  %15 = load i32, ptr %7, align 4, !tbaa !8
  %16 = icmp sle i32 %14, %15
  br i1 %16, label %17, label %40

17:                                               ; preds = %13
  call void @llvm.lifetime.start.p0(i64 4, ptr %9) #8
  %18 = load ptr, ptr %5, align 8, !tbaa !10
  %19 = load i32, ptr %8, align 4, !tbaa !8
  %20 = sext i32 %19 to i64
  %21 = getelementptr inbounds i32, ptr %18, i64 %20
  %22 = load i32, ptr %21, align 4, !tbaa !8
  store i32 %22, ptr %9, align 4, !tbaa !8
  %23 = load i32, ptr %9, align 4, !tbaa !8
  %24 = and i32 %23, 1
  %25 = icmp ne i32 %24, 0
  br i1 %25, label %26, label %31

26:                                               ; preds = %17
  %27 = load ptr, ptr %4, align 8, !tbaa !27
  %28 = load i32, ptr %6, align 4, !tbaa !8
  %29 = load i32, ptr %9, align 4, !tbaa !8
  %30 = lshr i32 %29, 1
  call void @Abc_TtCofactor1(ptr noundef %27, i32 noundef %28, i32 noundef %30)
  br label %36

31:                                               ; preds = %17
  %32 = load ptr, ptr %4, align 8, !tbaa !27
  %33 = load i32, ptr %6, align 4, !tbaa !8
  %34 = load i32, ptr %9, align 4, !tbaa !8
  %35 = lshr i32 %34, 1
  call void @Abc_TtCofactor0(ptr noundef %32, i32 noundef %33, i32 noundef %35)
  br label %36

36:                                               ; preds = %31, %26
  call void @llvm.lifetime.end.p0(i64 4, ptr %9) #8
  br label %37

37:                                               ; preds = %36
  %38 = load i32, ptr %8, align 4, !tbaa !8
  %39 = add nsw i32 %38, 1
  store i32 %39, ptr %8, align 4, !tbaa !8
  br label %13, !llvm.loop !28

40:                                               ; preds = %13
  call void @llvm.lifetime.end.p0(i64 4, ptr %8) #8
  call void @llvm.lifetime.end.p0(i64 4, ptr %7) #8
  ret void
}