; Function Attrs: inlinehint nofree norecurse nosync nounwind memory(argmem: readwrite) uwtable
define internal fastcc void @cubeCofactor(ptr noundef %0, ptr noundef readonly captures(none) %1, i32 noundef %2) unnamed_addr #2 {
  %4 = load i32, ptr %1, align 4, !tbaa !9
  %.not34 = icmp slt i32 %4, 1
  br i1 %.not34, label %._crit_edge, label %.lr.ph

.lr.ph:                                           ; preds = %3
  %5 = icmp eq i32 %2, 1
  %6 = sext i32 %2 to i64
  %7 = getelementptr inbounds i64, ptr %0, i64 %6
  %8 = icmp sgt i32 %2, 0
  %wide.trip.count51.i = zext nneg i32 %2 to i64
  %9 = add nuw i32 %4, 1
  %wide.trip.count = zext i32 %9 to i64
  br label %10

10:                                               ; preds = %.lr.ph, %Abc_TtCofactor1.exit
  %indvars.iv = phi i64 [ 1, %.lr.ph ], [ %indvars.iv.next, %Abc_TtCofactor1.exit ]
  %11 = getelementptr inbounds nuw i32, ptr %1, i64 %indvars.iv
  %12 = load i32, ptr %11, align 4, !tbaa !9
  %13 = and i32 %12, 1
  %.not12 = icmp eq i32 %13, 0
  %14 = lshr i32 %12, 1
  br i1 %.not12, label %51, label %15

15:                                               ; preds = %10
  br i1 %5, label %16, label %26

16:                                               ; preds = %15
  %17 = load i64, ptr %0, align 8, !tbaa !22
  %18 = zext nneg i32 %14 to i64
  %19 = getelementptr inbounds nuw [6 x i64], ptr @s_Truths6, i64 0, i64 %18
  %20 = load i64, ptr %19, align 8, !tbaa !22
  %21 = and i64 %20, %17
  %22 = shl nuw i32 1, %14
  %23 = zext nneg i32 %22 to i64
  %24 = lshr i64 %21, %23
  %25 = or i64 %24, %21
  br label %Abc_TtCofactor1.exit.sink.split

26:                                               ; preds = %15
  %27 = icmp ult i32 %12, 12
  br i1 %27, label %28, label %40

28:                                               ; preds = %26
  br i1 %8, label %.lr.ph.i, label %Abc_TtCofactor1.exit

.lr.ph.i:                                         ; preds = %28
  %29 = shl nuw nsw i32 1, %14
  %30 = zext nneg i32 %14 to i64
  %31 = getelementptr inbounds nuw [6 x i64], ptr @s_Truths6, i64 0, i64 %30
  %32 = load i64, ptr %31, align 8, !tbaa !22
  %33 = zext nneg i32 %29 to i64
  br label %34

34:                                               ; preds = %34, %.lr.ph.i
  %indvars.iv48.i = phi i64 [ 0, %.lr.ph.i ], [ %indvars.iv.next49.i, %34 ]
  %35 = getelementptr inbounds nuw i64, ptr %0, i64 %indvars.iv48.i
  %36 = load i64, ptr %35, align 8, !tbaa !22
  %37 = and i64 %36, %32
  %38 = lshr i64 %37, %33
  %39 = or i64 %38, %37
  store i64 %39, ptr %35, align 8, !tbaa !22
  %indvars.iv.next49.i = add nuw nsw i64 %indvars.iv48.i, 1
  %exitcond52.not.i = icmp eq i64 %indvars.iv.next49.i, %wide.trip.count51.i
  br i1 %exitcond52.not.i, label %Abc_TtCofactor1.exit, label %34, !llvm.loop !25

40:                                               ; preds = %26
  %41 = add nsw i32 %14, -6
  %42 = shl nuw i32 1, %41
  br i1 %8, label %.preheader.lr.ph.i, label %Abc_TtCofactor1.exit

.preheader.lr.ph.i:                               ; preds = %40
  %.not.i = icmp eq i32 %41, 31
  %43 = shl i32 2, %41
  %44 = sext i32 %43 to i64
  br i1 %.not.i, label %Abc_TtCofactor1.exit, label %.preheader.us.preheader.i

.preheader.us.preheader.i:                        ; preds = %.preheader.lr.ph.i
  %45 = sext i32 %42 to i64
  %smax.i = tail call i32 @llvm.smax.i32(i32 %42, i32 1)
  %wide.trip.count.i = zext nneg i32 %smax.i to i64
  br label %.preheader.us.i

.preheader.us.i:                                  ; preds = %._crit_edge.us.i, %.preheader.us.preheader.i
  %.043.us.i = phi ptr [ %49, %._crit_edge.us.i ], [ %0, %.preheader.us.preheader.i ]
  %invariant.gep.i = getelementptr i64, ptr %.043.us.i, i64 %45
  br label %46

46:                                               ; preds = %46, %.preheader.us.i
  %indvars.iv.i = phi i64 [ 0, %.preheader.us.i ], [ %indvars.iv.next.i, %46 ]
  %gep.i = getelementptr i64, ptr %invariant.gep.i, i64 %indvars.iv.i
  %47 = load i64, ptr %gep.i, align 8, !tbaa !22
  %48 = getelementptr inbounds nuw i64, ptr %.043.us.i, i64 %indvars.iv.i
  store i64 %47, ptr %48, align 8, !tbaa !22
  %indvars.iv.next.i = add nuw nsw i64 %indvars.iv.i, 1
  %exitcond.not.i = icmp eq i64 %indvars.iv.next.i, %wide.trip.count.i
  br i1 %exitcond.not.i, label %._crit_edge.us.i, label %46, !llvm.loop !26

._crit_edge.us.i:                                 ; preds = %46
  %49 = getelementptr inbounds i64, ptr %.043.us.i, i64 %44
  %50 = icmp ult ptr %49, %7
  br i1 %50, label %.preheader.us.i, label %Abc_TtCofactor1.exit, !llvm.loop !27

51:                                               ; preds = %10
  br i1 %5, label %52, label %62

52:                                               ; preds = %51
  %53 = load i64, ptr %0, align 8, !tbaa !22
  %54 = zext nneg i32 %14 to i64
  %55 = getelementptr inbounds nuw [6 x i64], ptr @s_Truths6Neg, i64 0, i64 %54
  %56 = load i64, ptr %55, align 8, !tbaa !22
  %57 = and i64 %56, %53
  %58 = shl nuw i32 1, %14
  %59 = zext nneg i32 %58 to i64
  %60 = shl i64 %57, %59
  %61 = or i64 %60, %57
  br label %Abc_TtCofactor1.exit.sink.split

62:                                               ; preds = %51
  %63 = icmp ult i32 %12, 12
  br i1 %63, label %64, label %76

64:                                               ; preds = %62
  br i1 %8, label %.lr.ph.i26, label %Abc_TtCofactor1.exit

.lr.ph.i26:                                       ; preds = %64
  %65 = shl nuw nsw i32 1, %14
  %66 = zext nneg i32 %14 to i64
  %67 = getelementptr inbounds nuw [6 x i64], ptr @s_Truths6Neg, i64 0, i64 %66
  %68 = load i64, ptr %67, align 8, !tbaa !22
  %69 = zext nneg i32 %65 to i64
  br label %70

70:                                               ; preds = %70, %.lr.ph.i26
  %indvars.iv48.i28 = phi i64 [ 0, %.lr.ph.i26 ], [ %indvars.iv.next49.i29, %70 ]
  %71 = getelementptr inbounds nuw i64, ptr %0, i64 %indvars.iv48.i28
  %72 = load i64, ptr %71, align 8, !tbaa !22
  %73 = and i64 %72, %68
  %74 = shl i64 %73, %69
  %75 = or i64 %74, %73
  store i64 %75, ptr %71, align 8, !tbaa !22
  %indvars.iv.next49.i29 = add nuw nsw i64 %indvars.iv48.i28, 1
  %exitcond52.not.i30 = icmp eq i64 %indvars.iv.next49.i29, %wide.trip.count51.i
  br i1 %exitcond52.not.i30, label %Abc_TtCofactor1.exit, label %70, !llvm.loop !28

76:                                               ; preds = %62
  %77 = add nsw i32 %14, -6
  %78 = shl nuw i32 1, %77
  br i1 %8, label %.preheader.lr.ph.i13, label %Abc_TtCofactor1.exit

.preheader.lr.ph.i13:                             ; preds = %76
  %.not.i14 = icmp eq i32 %77, 31
  %79 = shl i32 2, %77
  %80 = sext i32 %79 to i64
  br i1 %.not.i14, label %Abc_TtCofactor1.exit, label %.preheader.us.preheader.i15

.preheader.us.preheader.i15:                      ; preds = %.preheader.lr.ph.i13
  %81 = sext i32 %78 to i64
  %smax.i16 = tail call i32 @llvm.smax.i32(i32 %78, i32 1)
  %wide.trip.count.i17 = zext nneg i32 %smax.i16 to i64
  br label %.preheader.us.i18

.preheader.us.i18:                                ; preds = %._crit_edge.us.i25, %.preheader.us.preheader.i15
  %.043.us.i19 = phi ptr [ %85, %._crit_edge.us.i25 ], [ %0, %.preheader.us.preheader.i15 ]
  %invariant.gep.i20 = getelementptr i64, ptr %.043.us.i19, i64 %81
  br label %82

82:                                               ; preds = %82, %.preheader.us.i18
  %indvars.iv.i21 = phi i64 [ 0, %.preheader.us.i18 ], [ %indvars.iv.next.i23, %82 ]
  %83 = getelementptr inbounds nuw i64, ptr %.043.us.i19, i64 %indvars.iv.i21
  %84 = load i64, ptr %83, align 8, !tbaa !22
  %gep.i22 = getelementptr i64, ptr %invariant.gep.i20, i64 %indvars.iv.i21
  store i64 %84, ptr %gep.i22, align 8, !tbaa !22
  %indvars.iv.next.i23 = add nuw nsw i64 %indvars.iv.i21, 1
  %exitcond.not.i24 = icmp eq i64 %indvars.iv.next.i23, %wide.trip.count.i17
  br i1 %exitcond.not.i24, label %._crit_edge.us.i25, label %82, !llvm.loop !29

._crit_edge.us.i25:                               ; preds = %82
  %85 = getelementptr inbounds i64, ptr %.043.us.i19, i64 %80
  %86 = icmp ult ptr %85, %7
  br i1 %86, label %.preheader.us.i18, label %Abc_TtCofactor1.exit, !llvm.loop !30

Abc_TtCofactor1.exit.sink.split:                  ; preds = %16, %52
  %.sink = phi i64 [ %61, %52 ], [ %25, %16 ]
  store i64 %.sink, ptr %0, align 8, !tbaa !22
  br label %Abc_TtCofactor1.exit

Abc_TtCofactor1.exit:                             ; preds = %._crit_edge.us.i, %34, %._crit_edge.us.i25, %70, %Abc_TtCofactor1.exit.sink.split, %.preheader.lr.ph.i13, %76, %64, %.preheader.lr.ph.i, %40, %28
  %indvars.iv.next = add nuw nsw i64 %indvars.iv, 1
  %exitcond.not = icmp eq i64 %indvars.iv.next, %wide.trip.count
  br i1 %exitcond.not, label %._crit_edge, label %10, !llvm.loop !31

._crit_edge:                                      ; preds = %Abc_TtCofactor1.exit, %3
  ret void
}